target datalayout = "e-m:e-p270:32:32-p271:32:32-p272:64:64-i64:64-i128:128-f80:128-n8:16:32:64-S128"
target triple = "x86_64-pc-linux-gnu"

%struct.GCRef = type { i64 }
%struct.lua_State = type { %struct.GCRef, i8, i8, i8, i8, %struct.MRef, %struct.GCRef, ptr, ptr, %struct.MRef, %struct.MRef, %struct.GCRef, %struct.GCRef, ptr, i32 }
%struct.MRef = type { i64 }
%union.TValue = type { i64 }

@lj_err_allmsg = hidden global ptr @.str, align 8
@.str.6 = private unnamed_addr constant [2 x i8] c"?\00", align 1

; Function Attrs: noinline noreturn nounwind uwtable
define internal void @err_argmsg(ptr noundef %0, i32 noundef %1, ptr noundef %2) #6 {
  %4 = alloca ptr, align 8
  %5 = alloca i32, align 4
  %6 = alloca ptr, align 8
  %7 = alloca ptr, align 8
  %8 = alloca ptr, align 8
  store ptr %0, ptr %4, align 8, !tbaa !18
  store i32 %1, ptr %5, align 4, !tbaa !4
  store ptr %2, ptr %6, align 8, !tbaa !50
  call void @llvm.lifetime.start.p0(i64 8, ptr %7) #15
  store ptr @.str.6, ptr %7, align 8, !tbaa !50
  call void @llvm.lifetime.start.p0(i64 8, ptr %8) #15
  %9 = load ptr, ptr %4, align 8, !tbaa !18
  %10 = load ptr, ptr %4, align 8, !tbaa !18
  %11 = getelementptr inbounds nuw %struct.lua_State, ptr %10, i32 0, i32 7
  %12 = load ptr, ptr %11, align 8, !tbaa !24
  %13 = getelementptr inbounds %union.TValue, ptr %12, i64 -1
  %14 = call ptr @lj_debug_funcname(ptr noundef %9, ptr noundef %13, ptr noundef %7)
  store ptr %14, ptr %8, align 8, !tbaa !50
  %15 = load i32, ptr %5, align 4, !tbaa !4
  %16 = icmp slt i32 %15, 0
  br i1 %16, label %17, label %35

17:                                               ; preds = %3
  %18 = load i32, ptr %5, align 4, !tbaa !4
  %19 = icmp sgt i32 %18, -10000
  br i1 %19, label %20, label %35

20:                                               ; preds = %17
  %21 = load ptr, ptr %4, align 8, !tbaa !18
  %22 = getelementptr inbounds nuw %struct.lua_State, ptr %21, i32 0, i32 8
  %23 = load ptr, ptr %22, align 8, !tbaa !20
  %24 = load ptr, ptr %4, align 8, !tbaa !18
  %25 = getelementptr inbounds nuw %struct.lua_State, ptr %24, i32 0, i32 7
  %26 = load ptr, ptr %25, align 8, !tbaa !24
  %27 = ptrtoint ptr %23 to i64
  %28 = ptrtoint ptr %26 to i64
  %29 = sub i64 %27, %28
  %30 = sdiv exact i64 %29, 8
  %31 = trunc i64 %30 to i32
  %32 = load i32, ptr %5, align 4, !tbaa !4
  %33 = add nsw i32 %31, %32
  %34 = add nsw i32 %33, 1
  store i32 %34, ptr %5, align 4, !tbaa !4
  br label %35

35:                                               ; preds = %20, %17, %3
  %36 = load ptr, ptr %8, align 8, !tbaa !50
  %37 = icmp ne ptr %36, null
  br i1 %37, label %38, label %55

38:                                               ; preds = %35
  %39 = load ptr, ptr %8, align 8, !tbaa !50
  %40 = getelementptr inbounds i8, ptr %39, i64 3
  %41 = load i8, ptr %40, align 1, !tbaa !28
  %42 = sext i8 %41 to i32
  %43 = icmp eq i32 %42, 104
  br i1 %43, label %44, label %55

44:                                               ; preds = %38
  %45 = load i32, ptr %5, align 4, !tbaa !4
  %46 = add nsw i32 %45, -1
  store i32 %46, ptr %5, align 4, !tbaa !4
  %47 = icmp eq i32 %46, 0
  br i1 %47, label %48, label %55

48:                                               ; preds = %44
  %49 = load ptr, ptr %4, align 8, !tbaa !18
  %50 = load ptr, ptr @lj_err_allmsg, align 8, !tbaa !50
  %51 = getelementptr inbounds i8, ptr %50, i64 457
  %52 = load ptr, ptr %7, align 8, !tbaa !50
  %53 = load ptr, ptr %6, align 8, !tbaa !50
  %54 = call ptr (ptr, ptr, ...) @lj_strfmt_pushf(ptr noundef %49, ptr noundef %51, ptr noundef %52, ptr noundef %53)
  store ptr %54, ptr %6, align 8, !tbaa !50
  br label %63

55:                                               ; preds = %44, %38, %35
  %56 = load ptr, ptr %4, align 8, !tbaa !18
  %57 = load ptr, ptr @lj_err_allmsg, align 8, !tbaa !50
  %58 = getelementptr inbounds i8, ptr %57, i64 487
  %59 = load i32, ptr %5, align 4, !tbaa !4
  %60 = load ptr, ptr %7, align 8, !tbaa !50
  %61 = load ptr, ptr %6, align 8, !tbaa !50
  %62 = call ptr (ptr, ptr, ...) @lj_strfmt_pushf(ptr noundef %56, ptr noundef %58, i32 noundef %59, ptr noundef %60, ptr noundef %61)
  store ptr %62, ptr %6, align 8, !tbaa !50
  br label %63

63:                                               ; preds = %55, %48
  %64 = load ptr, ptr %4, align 8, !tbaa !18
  %65 = load ptr, ptr %6, align 8, !tbaa !50
  call void @lj_err_callermsg(ptr noundef %64, ptr noundef %65) #18
  unreachable
}