; Function Attrs: noinline noreturn nounwind uwtable
define internal fastcc void @err_argmsg(ptr noundef %0, i32 noundef %1, ptr noundef %2) unnamed_addr #5 {
  %4 = alloca ptr, align 8
  call void @llvm.lifetime.start.p0(i64 8, ptr nonnull %4) #15
  store ptr @.str.6, ptr %4, align 8, !tbaa !36
  %5 = getelementptr inbounds nuw i8, ptr %0, i64 32
  %6 = load ptr, ptr %5, align 8, !tbaa !15
  %7 = getelementptr inbounds i8, ptr %6, i64 -8
  %8 = call ptr @lj_debug_funcname(ptr noundef %0, ptr noundef nonnull %7, ptr noundef nonnull %4) #15
  %or.cond = icmp ugt i32 %1, -10000
  br i1 %or.cond, label %9, label %20

9:                                                ; preds = %3
  %10 = getelementptr inbounds nuw i8, ptr %0, i64 40
  %11 = load ptr, ptr %10, align 8, !tbaa !20
  %12 = load ptr, ptr %5, align 8, !tbaa !15
  %13 = ptrtoint ptr %11 to i64
  %14 = ptrtoint ptr %12 to i64
  %15 = sub i64 %13, %14
  %16 = lshr exact i64 %15, 3
  %17 = trunc i64 %16 to i32
  %18 = add nsw i32 %1, 1
  %19 = add i32 %18, %17
  br label %20

20:                                               ; preds = %9, %3
  %.0 = phi i32 [ %19, %9 ], [ %1, %3 ]
  %.not = icmp eq ptr %8, null
  br i1 %.not, label %33, label %21

21:                                               ; preds = %20
  %22 = getelementptr inbounds nuw i8, ptr %8, i64 3
  %23 = load i8, ptr %22, align 1, !tbaa !18
  %24 = icmp eq i8 %23, 104
  br i1 %24, label %25, label %33

25:                                               ; preds = %21
  %26 = add nsw i32 %.0, -1
  %27 = icmp eq i32 %26, 0
  br i1 %27, label %28, label %33

28:                                               ; preds = %25
  %29 = load ptr, ptr @lj_err_allmsg, align 8, !tbaa !36
  %30 = getelementptr inbounds nuw i8, ptr %29, i64 457
  %31 = load ptr, ptr %4, align 8, !tbaa !36
  %32 = call ptr (ptr, ptr, ...) @lj_strfmt_pushf(ptr noundef nonnull %0, ptr noundef nonnull %30, ptr noundef %31, ptr noundef %2) #15
  br label %38

33:                                               ; preds = %25, %21, %20
  %.1 = phi i32 [ %26, %25 ], [ %.0, %21 ], [ %.0, %20 ]
  %34 = load ptr, ptr @lj_err_allmsg, align 8, !tbaa !36
  %35 = getelementptr inbounds nuw i8, ptr %34, i64 487
  %36 = load ptr, ptr %4, align 8, !tbaa !36
  %37 = call ptr (ptr, ptr, ...) @lj_strfmt_pushf(ptr noundef nonnull %0, ptr noundef nonnull %35, i32 noundef %.1, ptr noundef %36, ptr noundef %2) #15
  br label %38

38:                                               ; preds = %33, %28
  %.017 = phi ptr [ %32, %28 ], [ %37, %33 ]
  call void @lj_err_callermsg(ptr noundef nonnull %0, ptr noundef %.017) #19
  unreachable
}